target datalayout = "e-m:e-p270:32:32-p271:32:32-p272:64:64-i64:64-i128:128-f80:128-n8:16:32:64-S128"
target triple = "x86_64-pc-linux-gnu"

%struct.when = type { i32, ptr, ptr }

@base_yyout = external global ptr, align 8
@.str = private unnamed_addr constant [3 x i8] c"%s\00", align 1
@when_nf = dso_local global %struct.when zeroinitializer, align 8
@.str.1 = private unnamed_addr constant [39 x i8] c"\0Aif (sqlca.sqlcode == ECPG_NOT_FOUND) \00", align 1
@when_warn = dso_local global %struct.when zeroinitializer, align 8
@.str.2 = private unnamed_addr constant [31 x i8] c"\0Aif (sqlca.sqlwarn[0] == 'W') \00", align 1
@when_error = dso_local global %struct.when zeroinitializer, align 8
@.str.3 = private unnamed_addr constant [25 x i8] c"\0Aif (sqlca.sqlcode < 0) \00", align 1

; Function Attrs: nounwind uwtable
define dso_local void @output_line_number() #0 {
  %1 = alloca ptr, align 8
  call void @llvm.lifetime.start.p0(i64 8, ptr %1) #5
  %2 = call ptr @hashline_number()
  store ptr %2, ptr %1, align 8
  %3 = load ptr, ptr @base_yyout, align 8
  %4 = load ptr, ptr %1, align 8
  %5 = call i32 (ptr, ptr, ...) @pg_fprintf(ptr noundef %3, ptr noundef @.str, ptr noundef %4)
  call void @llvm.lifetime.end.p0(i64 8, ptr %1) #5
  ret void
}

; Function Attrs: nounwind uwtable
define dso_local void @whenever_action(i32 noundef %0) #0 {
  %2 = alloca i32, align 4
  store i32 %0, ptr %2, align 4
  %3 = load i32, ptr %2, align 4
  %4 = and i32 %3, 1
  %5 = icmp eq i32 %4, 1
  br i1 %5, label %6, label %12

6:                                                ; preds = %1
  %7 = load i32, ptr @when_nf, align 8
  %8 = icmp ne i32 %7, 0
  br i1 %8, label %9, label %12

9:                                                ; preds = %6
  call void @output_line_number()
  %10 = load ptr, ptr @base_yyout, align 8
  %11 = call i32 (ptr, ptr, ...) @pg_fprintf(ptr noundef %10, ptr noundef @.str.1)
  call void @print_action(ptr noundef @when_nf)
  br label %12

12:                                               ; preds = %9, %6, %1
  %13 = load i32, ptr @when_warn, align 8
  %14 = icmp ne i32 %13, 0
  br i1 %14, label %15, label %18

15:                                               ; preds = %12
  call void @output_line_number()
  %16 = load ptr, ptr @base_yyout, align 8
  %17 = call i32 (ptr, ptr, ...) @pg_fprintf(ptr noundef %16, ptr noundef @.str.2)
  call void @print_action(ptr noundef @when_warn)
  br label %18

18:                                               ; preds = %15, %12
  %19 = load i32, ptr @when_error, align 8
  %20 = icmp ne i32 %19, 0
  br i1 %20, label %21, label %24

21:                                               ; preds = %18
  call void @output_line_number()
  %22 = load ptr, ptr @base_yyout, align 8
  %23 = call i32 (ptr, ptr, ...) @pg_fprintf(ptr noundef %22, ptr noundef @.str.3)
  call void @print_action(ptr noundef @when_error)
  br label %24

24:                                               ; preds = %21, %18
  %25 = load i32, ptr %2, align 4
  %26 = and i32 %25, 2
  %27 = icmp eq i32 %26, 2
  br i1 %27, label %28, label %31

28:                                               ; preds = %24
  %29 = load ptr, ptr @base_yyout, align 8
  %30 = call i32 @fputc(i32 noundef 125, ptr noundef %29)
  br label %31

31:                                               ; preds = %28, %24
  call void @output_line_number()
  ret void
}